(dp1
S'layout'
p2
(ilayout
Layout
p3
(dp4
S'capsules'
p5
(lp6
(I6
I5
tp7
a(I25
I10
tp8
asS'numGhosts'
p9
I4
sS'food'
p10
(igame
Grid
p11
(dp12
S'CELLS_PER_INT'
p13
I30
sS'width'
p14
I32
sS'data'
p15
(lp16
(lp17
I00
aI00
aI00
aI00
aI00
aI00
aI00
aI00
aI00
aI00
aI00
aI00
aI00
aI00
aI00
aI00
aa(lp18
I00
aI00
aI00
aI00
aI00
aI00
aI00
aI00
aI00
aI00
aI00
aI00
aI00
aI00
aI00
aI00
aa(lp19
I00
aI00
aI00
aI00
aI00
aI00
aI00
aI00
aI00
aI00
aI00
aI00
aI00
aI00
aI00
aI00
aa(lp20
I00
aI01
aI01
aI00
aI00
aI00
aI00
aI00
aI01
aI00
aI00
aI00
aI00
aI00
aI00
aI00
aa(lp21
I00
aI00
aI00
aI00
aI00
aI00
aI00
aI00
aI00
aI00
aI00
aI00
aI00
aI00
aI00
aI00
aa(lp22
I00
aI01
aI00
aI00
aI00
aI00
aI00
aI00
aI00
aI00
aI00
aI00
aI01
aI00
aI01
aI00
aa(lp23
I00
aI00
aI00
aI00
aI00
aI00
aI00
aI00
aI00
aI00
aI00
aI00
aI00
aI00
aI00
aI00
aa(lp24
I00
aI00
aI00
aI01
aI00
aI00
aI00
aI00
aI01
aI01
aI00
aI00
aI00
aI00
aI00
aI00
aa(lp25
I00
aI00
aI00
aI01
aI00
aI00
aI00
aI00
aI00
aI01
aI00
aI00
aI00
aI00
aI01
aI00
aa(lp26
I00
aI00
aI00
aI00
aI00
aI01
aI00
aI00
aI00
aI00
aI00
aI01
aI00
aI00
aI00
aI00
aa(lp27
I00
aI00
aI00
aI01
aI00
aI00
aI00
aI01
aI00
aI01
aI00
aI01
aI00
aI00
aI01
aI00
aa(lp28
I00
aI00
aI00
aI00
aI00
aI00
aI00
aI00
aI00
aI00
aI00
aI00
aI00
aI00
aI00
aI00
aa(lp29
I00
aI00
aI00
aI00
aI00
aI00
aI00
aI00
aI00
aI00
aI00
aI00
aI00
aI00
aI00
aI00
aa(lp30
I00
aI00
aI00
aI00
aI00
aI00
aI00
aI00
aI00
aI00
aI00
aI00
aI00
aI00
aI00
aI00
aa(lp31
I00
aI00
aI00
aI00
aI00
aI00
aI00
aI00
aI00
aI01
aI00
aI00
aI00
aI00
aI00
aI00
aa(lp32
I00
aI00
aI00
aI00
aI00
aI00
aI00
aI00
aI00
aI00
aI00
aI00
aI00
aI00
aI00
aI00
aa(lp33
I00
aI00
aI00
aI00
aI00
aI00
aI00
aI00
aI00
aI00
aI00
aI00
aI00
aI00
aI00
aI00
aa(lp34
I00
aI00
aI00
aI00
aI00
aI00
aI01
aI00
aI00
aI00
aI00
aI00
aI00
aI00
aI00
aI00
aa(lp35
I00
aI00
aI00
aI00
aI00
aI00
aI00
aI00
aI00
aI00
aI00
aI00
aI00
aI00
aI00
aI00
aa(lp36
I00
aI00
aI00
aI00
aI00
aI00
aI00
aI00
aI00
aI00
aI00
aI00
aI00
aI00
aI00
aI00
aa(lp37
I00
aI00
aI00
aI00
aI00
aI00
aI00
aI00
aI00
aI00
aI00
aI00
aI00
aI00
aI00
aI00
aa(lp38
I00
aI01
aI00
aI00
aI01
aI00
aI01
aI00
aI01
aI00
aI00
aI00
aI01
aI00
aI00
aI00
aa(lp39
I00
aI00
aI00
aI00
aI01
aI00
aI00
aI00
aI00
aI00
aI01
aI00
aI00
aI00
aI00
aI00
aa(lp40
I00
aI01
aI00
aI00
aI00
aI00
aI01
aI00
aI00
aI00
aI00
aI00
aI01
aI00
aI00
aI00
aa(lp41
I00
aI00
aI00
aI00
aI00
aI00
aI01
aI01
aI00
aI00
aI00
aI00
aI01
aI00
aI00
aI00
aa(lp42
I00
aI00
aI00
aI00
aI00
aI00
aI00
aI00
aI00
aI00
aI00
aI00
aI00
aI00
aI00
aI00
aa(lp43
I00
aI01
aI00
aI01
aI00
aI00
aI00
aI00
aI00
aI00
aI00
aI00
aI00
aI00
aI01
aI00
aa(lp44
I00
aI00
aI00
aI00
aI00
aI00
aI00
aI00
aI00
aI00
aI00
aI00
aI00
aI00
aI00
aI00
aa(lp45
I00
aI00
aI00
aI00
aI00
aI00
aI00
aI01
aI00
aI00
aI00
aI00
aI00
aI01
aI01
aI00
aa(lp46
I00
aI00
aI00
aI00
aI00
aI00
aI00
aI00
aI00
aI00
aI00
aI00
aI00
aI00
aI00
aI00
aa(lp47
I00
aI00
aI00
aI00
aI00
aI00
aI00
aI00
aI00
aI00
aI00
aI00
aI00
aI00
aI00
aI00
aa(lp48
I00
aI00
aI00
aI00
aI00
aI00
aI00
aI00
aI00
aI00
aI00
aI00
aI00
aI00
aI00
aI00
aasS'height'
p49
I16
sbsS'agentPositions'
p50
(lp51
(I00
(I1
I2
tp52
tp53
a(I00
(I30
I13
tp54
tp55
a(I00
(I1
I1
tp56
tp57
a(I00
(I30
I14
tp58
tp59
asg49
I16
sg14
I32
sS'walls'
p60
(igame
Grid
p61
(dp62
g13
I30
sg14
I32
sg15
(lp63
(lp64
I01
aI01
aI01
aI01
aI01
aI01
aI01
aI01
aI01
aI01
aI01
aI01
aI01
aI01
aI01
aI01
aa(lp65
I01
aI00
aI00
aI00
aI00
aI00
aI00
aI00
aI00
aI00
aI00
aI00
aI00
aI00
aI00
aI01
aa(lp66
I01
aI01
aI01
aI01
aI01
aI01
aI01
aI01
aI01
aI01
aI01
aI01
aI01
aI01
aI00
aI01
aa(lp67
I01
aI00
aI00
aI00
aI00
aI00
aI00
aI01
aI00
aI01
aI00
aI00
aI00
aI00
aI00
aI01
aa(lp68
I01
aI01
aI01
aI01
aI01
aI01
aI00
aI00
aI00
aI00
aI00
aI01
aI01
aI01
aI01
aI01
aa(lp69
I01
aI00
aI00
aI00
aI00
aI00
aI00
aI00
aI01
aI01
aI00
aI01
aI00
aI01
aI00
aI01
aa(lp70
I01
aI01
aI00
aI01
aI01
aI00
aI01
aI01
aI01
aI00
aI00
aI00
aI00
aI00
aI00
aI01
aa(lp71
I01
aI00
aI00
aI00
aI01
aI00
aI00
aI01
aI00
aI00
aI01
aI01
aI01
aI00
aI01
aI01
aa(lp72
I01
aI00
aI01
aI00
aI01
aI01
aI00
aI01
aI01
aI00
aI01
aI00
aI00
aI00
aI00
aI01
aa(lp73
I01
aI00
aI01
aI01
aI01
aI00
aI00
aI01
aI01
aI01
aI01
aI00
aI01
aI00
aI01
aI01
aa(lp74
I01
aI00
aI01
aI00
aI01
aI01
aI00
aI00
aI01
aI00
aI01
aI00
aI01
aI00
aI00
aI01
aa(lp75
I01
aI00
aI00
aI00
aI00
aI01
aI00
aI01
aI01
aI00
aI01
aI01
aI01
aI00
aI01
aI01
aa(lp76
I01
aI01
aI00
aI01
aI00
aI01
aI00
aI00
aI00
aI00
aI00
aI00
aI00
aI00
aI00
aI01
aa(lp77
I01
aI00
aI00
aI01
aI00
aI00
aI00
aI00
aI00
aI01
aI01
aI01
aI00
aI01
aI00
aI01
aa(lp78
I01
aI00
aI01
aI01
aI01
aI00
aI01
aI00
aI00
aI00
aI01
aI00
aI00
aI01
aI00
aI01
aa(lp79
I01
aI00
aI00
aI01
aI00
aI00
aI01
aI00
aI00
aI01
aI01
aI00
aI00
aI00
aI00
aI01
aa(lp80
I01
aI00
aI00
aI00
aI00
aI01
aI01
aI00
aI00
aI01
aI00
aI00
aI01
aI00
aI00
aI01
aa(lp81
I01
aI00
aI01
aI00
aI00
aI01
aI00
aI00
aI00
aI01
aI00
aI01
aI01
aI01
aI00
aI01
aa(lp82
I01
aI00
aI01
aI00
aI01
aI01
aI01
aI00
aI00
aI00
aI00
aI00
aI01
aI00
aI00
aI01
aa(lp83
I01
aI00
aI00
aI00
aI00
aI00
aI00
aI00
aI00
aI00
aI01
aI00
aI01
aI00
aI01
aI01
aa(lp84
I01
aI01
aI00
aI01
aI01
aI01
aI00
aI01
aI01
aI00
aI01
aI00
aI00
aI00
aI00
aI01
aa(lp85
I01
aI00
aI00
aI01
aI00
aI01
aI00
aI01
aI00
aI00
aI01
aI01
aI00
aI01
aI00
aI01
aa(lp86
I01
aI01
aI00
aI01
aI00
aI01
aI01
aI01
aI01
aI00
aI00
aI01
aI01
aI01
aI00
aI01
aa(lp87
I01
aI00
aI00
aI00
aI00
aI01
aI00
aI01
aI01
aI00
aI01
aI01
aI00
aI01
aI00
aI01
aa(lp88
I01
aI01
aI00
aI01
aI01
aI01
aI00
aI00
aI01
aI00
aI00
aI01
aI00
aI00
aI00
aI01
aa(lp89
I01
aI00
aI00
aI00
aI00
aI00
aI00
aI01
aI01
aI01
aI00
aI01
aI01
aI00
aI01
aI01
aa(lp90
I01
aI00
aI01
aI00
aI01
aI00
aI01
aI01
aI00
aI00
aI00
aI00
aI00
aI00
aI00
aI01
aa(lp91
I01
aI01
aI01
aI01
aI01
aI00
aI00
aI00
aI00
aI00
aI01
aI01
aI01
aI01
aI01
aI01
aa(lp92
I01
aI00
aI00
aI00
aI00
aI00
aI01
aI00
aI01
aI00
aI00
aI00
aI00
aI00
aI00
aI01
aa(lp93
I01
aI00
aI01
aI01
aI01
aI01
aI01
aI01
aI01
aI01
aI01
aI01
aI01
aI01
aI01
aI01
aa(lp94
I01
aI00
aI00
aI00
aI00
aI00
aI00
aI00
aI00
aI00
aI00
aI00
aI00
aI00
aI00
aI01
aa(lp95
I01
aI01
aI01
aI01
aI01
aI01
aI01
aI01
aI01
aI01
aI01
aI01
aI01
aI01
aI01
aI01
aasg49
I16
sbsS'totalFood'
p96
I40
sS'layoutText'
p97
(lp98
S'%%%%%%%%%%%%%%%%%%%%%%%%%%%%%%%%'
p99
aS'%   %. %.%.%       %     %.%.%4%'
p100
aS'% % %%       %%  %   %%%   %.%2%'
p101
aS'% % %. % %%%    %%%% .%..% % % %'
p102
aS'% % %% % ..% %   %   %%%%% % % %'
p103
aS'% %    %%%%% %%%   %%%.% o % % %'
p104
aS'% %% % ..%.  %.%%%       %   % %'
p105
aS'% %. %%.%%%%        %.%%%%  %% %'
p106
aS'% %%  %%%%.%        %%%%.%% .% %'
p107
aS'% %   %       %%%.%  .%.. % %% %'
p108
aS'% % % o %.%%%   %%% %%%%%    % %'
p109
aS'% % % %%%%%   %   % %.. % %% % %'
p110
aS'% % % %..%. %%%%    %%% % .% % %'
p111
aS'%1%.%   %%%   %  %%       %% % %'
p112
aS'%3%.%.%     %       %.%.% .%   %'
p113
aS'%%%%%%%%%%%%%%%%%%%%%%%%%%%%%%%%'
p114
asbsS'blueTeamName'
p115
S'Blue'
p116
sS'actions'
p117
(lp118
(I0
S'North'
p119
tp120
a(I1
g119
tp121
a(I2
g119
tp122
a(I3
S'Stop'
p123
tp124
a(I0
g119
tp125
a(I1
g123
tp126
a(I2
g119
tp127
a(I3
g123
tp128
a(I0
g119
tp129
a(I1
S'South'
p130
tp131
a(I2
g119
tp132
a(I3
g130
tp133
a(I0
g119
tp134
a(I1
g130
tp135
a(I2
g119
tp136
a(I3
g130
tp137
a(I0
g119
tp138
a(I1
g119
tp139
a(I2
g119
tp140
a(I3
g119
tp141
a(I0
g119
tp142
a(I1
g130
tp143
a(I2
g119
tp144
a(I3
g123
tp145
a(I0
g119
tp146
a(I1
g130
tp147
a(I2
g119
tp148
a(I3
g119
tp149
a(I0
g119
tp150
a(I1
g123
tp151
a(I2
g119
tp152
a(I3
g123
tp153
a(I0
g119
tp154
a(I1
g130
tp155
a(I2
g119
tp156
a(I3
g130
tp157
a(I0
g119
tp158
a(I1
g130
tp159
a(I2
g119
tp160
a(I3
g119
tp161
a(I0
g119
tp162
a(I1
g119
tp163
a(I2
g119
tp164
a(I3
g123
tp165
a(I0
g119
tp166
a(I1
g119
tp167
a(I2
g119
tp168
a(I3
g123
tp169
a(I0
S'East'
p170
tp171
a(I1
g119
tp172
a(I2
g119
tp173
a(I3
g130
tp174
a(I0
g170
tp175
a(I1
g123
tp176
a(I2
g170
tp177
a(I3
g130
tp178
a(I0
g130
tp179
a(I1
g119
tp180
a(I2
g170
tp181
a(I3
g123
tp182
a(I0
g130
tp183
a(I1
g119
tp184
a(I2
g130
tp185
a(I3
g119
tp186
a(I0
g130
tp187
a(I1
g123
tp188
a(I2
g130
tp189
a(I3
g119
tp190
a(I0
g130
tp191
a(I1
g130
tp192
a(I2
g130
tp193
a(I3
g130
tp194
a(I0
g170
tp195
a(I1
g119
tp196
a(I2
g130
tp197
a(I3
g123
tp198
a(I0
g130
tp199
a(I1
g130
tp200
a(I2
g170
tp201
a(I3
g119
tp202
a(I0
g130
tp203
a(I1
g130
tp204
a(I2
g130
tp205
a(I3
g123
tp206
a(I0
g130
tp207
a(I1
g119
tp208
a(I2
g130
tp209
a(I3
g130
tp210
a(I0
g170
tp211
a(I1
g130
tp212
a(I2
S'West'
p213
tp214
a(I3
g119
tp215
a(I0
g130
tp216
a(I1
g119
tp217
a(I2
g170
tp218
a(I3
g123
tp219
a(I0
g130
tp220
a(I1
g130
tp221
a(I2
g119
tp222
a(I3
g130
tp223
a(I0
g170
tp224
a(I1
g123
tp225
a(I2
g119
tp226
a(I3
g123
tp227
a(I0
g170
tp228
a(I1
g130
tp229
a(I2
g170
tp230
a(I3
g119
tp231
a(I0
g119
tp232
a(I1
g130
tp233
a(I2
g170
tp234
a(I3
g123
tp235
a(I0
g170
tp236
a(I1
g123
tp237
a(I2
g130
tp238
a(I3
g123
tp239
a(I0
g170
tp240
a(I1
g130
tp241
a(I2
g170
tp242
a(I3
g123
tp243
a(I0
g170
tp244
a(I1
g130
tp245
a(I2
g130
tp246
a(I3
g123
tp247
a(I0
g170
tp248
a(I1
g119
tp249
a(I2
g119
tp250
a(I3
g130
tp251
a(I0
g170
tp252
a(I1
g119
tp253
a(I2
g213
tp254
a(I3
g119
tp255
a(I0
g170
tp256
a(I1
g123
tp257
a(I2
g119
tp258
a(I3
g130
tp259
a(I0
g119
tp260
a(I1
g123
tp261
a(I2
g119
tp262
a(I3
g130
tp263
a(I0
g170
tp264
a(I1
g119
tp265
a(I2
g119
tp266
a(I3
g130
tp267
a(I0
g170
tp268
a(I1
g119
tp269
a(I2
g119
tp270
a(I3
g123
tp271
a(I0
g170
tp272
a(I1
g123
tp273
a(I2
g119
tp274
a(I3
g123
tp275
a(I0
g170
tp276
a(I1
g119
tp277
a(I2
g213
tp278
a(I3
g119
tp279
a(I0
g130
tp280
a(I1
g123
tp281
a(I2
g170
tp282
a(I3
g130
tp283
a(I0
g119
tp284
a(I1
g123
tp285
a(I2
g130
tp286
a(I3
g119
tp287
a(I0
g170
tp288
a(I1
g119
tp289
a(I2
g130
tp290
a(I3
g119
tp291
a(I0
g170
tp292
a(I1
g123
tp293
a(I2
g213
tp294
a(I3
g119
tp295
a(I0
g130
tp296
a(I1
g130
tp297
a(I2
g170
tp298
a(I3
g123
tp299
a(I0
g170
tp300
a(I1
g123
tp301
a(I2
g119
tp302
a(I3
g130
tp303
a(I0
g170
tp304
a(I1
g130
tp305
a(I2
g119
tp306
a(I3
g130
tp307
a(I0
g213
tp308
a(I1
g123
tp309
a(I2
g213
tp310
a(I3
g119
tp311
a(I0
g213
tp312
a(I1
g123
tp313
a(I2
g170
tp314
a(I3
g119
tp315
a(I0
g119
tp316
a(I1
g119
tp317
a(I2
g130
tp318
a(I3
g130
tp319
a(I0
g119
tp320
a(I1
g130
tp321
a(I2
g170
tp322
a(I3
g119
tp323
a(I0
g119
tp324
a(I1
g119
tp325
a(I2
g170
tp326
a(I3
g130
tp327
a(I0
g170
tp328
a(I1
g130
tp329
a(I2
g119
tp330
a(I3
g130
tp331
a(I0
g170
tp332
a(I1
g119
tp333
a(I2
g130
tp334
a(I3
g119
tp335
a(I0
g130
tp336
a(I1
g130
tp337
a(I2
g213
tp338
a(I3
g119
tp339
a(I0
g119
tp340
a(I1
g123
tp341
a(I2
g213
tp342
a(I3
g123
tp343
a(I0
g170
tp344
a(I1
g123
tp345
a(I2
g119
tp346
a(I3
g130
tp347
a(I0
g119
tp348
a(I1
g119
tp349
a(I2
g213
tp350
a(I3
g130
tp351
a(I0
g130
tp352
a(I1
g123
tp353
a(I2
g170
tp354
a(I3
g119
tp355
a(I0
g170
tp356
a(I1
g130
tp357
a(I2
g130
tp358
a(I3
g130
tp359
a(I0
g170
tp360
a(I1
g119
tp361
a(I2
g130
tp362
a(I3
g119
tp363
a(I0
g119
tp364
a(I1
g130
tp365
a(I2
g213
tp366
a(I3
g119
tp367
a(I0
g170
tp368
a(I1
g119
tp369
a(I2
g170
tp370
a(I3
g123
tp371
a(I0
g170
tp372
a(I1
g123
tp373
a(I2
g130
tp374
a(I3
g130
tp375
a(I0
g119
tp376
a(I1
g123
tp377
a(I2
g130
tp378
a(I3
g123
tp379
a(I0
g119
tp380
a(I1
g119
tp381
a(I2
g213
tp382
a(I3
g123
tp383
a(I0
g119
tp384
a(I1
g130
tp385
a(I2
g213
tp386
a(I3
g119
tp387
a(I0
g119
tp388
a(I1
g130
tp389
a(I2
g213
tp390
a(I3
g130
tp391
a(I0
g130
tp392
a(I1
g123
tp393
a(I2
g119
tp394
a(I3
g123
tp395
a(I0
g213
tp396
a(I1
g119
tp397
a(I2
g119
tp398
a(I3
g130
tp399
a(I0
g213
tp400
a(I1
g119
tp401
a(I2
g119
tp402
a(I3
g130
tp403
a(I0
g130
tp404
a(I1
g123
tp405
a(I2
g119
tp406
a(I3
g123
tp407
a(I0
g213
tp408
a(I1
g130
tp409
a(I2
g213
tp410
a(I3
g123
tp411
a(I0
g170
tp412
a(I1
g123
tp413
a(I2
g213
tp414
a(I3
g130
tp415
a(I0
g119
tp416
a(I1
g130
tp417
a(I2
g130
tp418
a(I3
g123
tp419
a(I0
g119
tp420
a(I1
g123
tp421
a(I2
g130
tp422
a(I3
g130
tp423
a(I0
g213
tp424
a(I1
g119
tp425
a(I2
g130
tp426
a(I3
g119
tp427
a(I0
g213
tp428
a(I1
g119
tp429
a(I2
g130
tp430
a(I3
g119
tp431
a(I0
g213
tp432
a(I1
g123
tp433
a(I2
g130
tp434
a(I3
g123
tp435
a(I0
g213
tp436
a(I1
g123
tp437
a(I2
g130
tp438
a(I3
g130
tp439
a(I0
g130
tp440
a(I1
g123
tp441
a(I2
g130
tp442
a(I3
g123
tp443
a(I0
g130
tp444
a(I1
g130
tp445
a(I2
g130
tp446
a(I3
g123
tp447
a(I0
g170
tp448
a(I1
g123
tp449
a(I2
g130
tp450
a(I3
g119
tp451
a(I0
g213
tp452
a(I1
g130
tp453
a(I2
g130
tp454
a(I3
g123
tp455
a(I0
g130
tp456
a(I1
g123
tp457
a(I2
g130
tp458
a(I3
g130
tp459
a(I0
g213
tp460
a(I1
g119
tp461
a(I2
g130
tp462
a(I3
g119
tp463
a(I0
g213
tp464
a(I1
g119
tp465
a(I2
g130
tp466
a(I3
g123
tp467
a(I0
g130
tp468
a(I1
g130
tp469
a(I2
g119
tp470
a(I3
g119
tp471
a(I0
g130
tp472
a(I1
g123
tp473
a(I2
g119
tp474
a(I3
g123
tp475
a(I0
g170
tp476
a(I1
g123
tp477
a(I2
g119
tp478
a(I3
g130
tp479
a(I0
g130
tp480
a(I1
g123
tp481
a(I2
g119
tp482
a(I3
g123
tp483
a(I0
g130
tp484
a(I1
g123
tp485
a(I2
g119
tp486
a(I3
g130
tp487
a(I0
g130
tp488
a(I1
g123
tp489
a(I2
g119
tp490
a(I3
g123
tp491
a(I0
g130
tp492
a(I1
g123
tp493
a(I2
g119
tp494
a(I3
g130
tp495
a(I0
g130
tp496
a(I1
g130
tp497
a(I2
g119
tp498
a(I3
g123
tp499
a(I0
g130
tp500
a(I1
g130
tp501
a(I2
g119
tp502
a(I3
g123
tp503
a(I0
g130
tp504
a(I1
g119
tp505
a(I2
g119
tp506
a(I3
g123
tp507
a(I0
g170
tp508
a(I1
g123
tp509
a(I2
g119
tp510
a(I3
g119
tp511
a(I0
g170
tp512
a(I1
g130
tp513
a(I2
g119
tp514
a(I3
g123
tp515
a(I0
g130
tp516
a(I1
g130
tp517
a(I2
g119
tp518
a(I3
g123
tp519
a(I0
g119
tp520
a(I1
g123
tp521
a(I2
g170
tp522
a(I3
g119
tp523
a(I0
g170
tp524
a(I1
g123
tp525
a(I2
g170
tp526
a(I3
g123
tp527
a(I0
g170
tp528
a(I1
g123
tp529
a(I2
g130
tp530
a(I3
g130
tp531
a(I0
g130
tp532
a(I1
g119
tp533
a(I2
g130
tp534
a(I3
g119
tp535
a(I0
g119
tp536
a(I1
g119
tp537
a(I2
g130
tp538
a(I3
g119
tp539
a(I0
g119
tp540
a(I1
g119
tp541
a(I2
g130
tp542
a(I3
g130
tp543
a(I0
g119
tp544
a(I1
g123
tp545
a(I2
g170
tp546
a(I3
g123
tp547
a(I0
g213
tp548
a(I1
g123
tp549
a(I2
g170
tp550
a(I3
g123
tp551
a(I0
g213
tp552
a(I1
g130
tp553
a(I2
g170
tp554
a(I3
g130
tp555
a(I0
g170
tp556
a(I1
g130
tp557
a(I2
g119
tp558
a(I3
g123
tp559
a(I0
g170
tp560
a(I1
g123
tp561
a(I2
g119
tp562
a(I3
g130
tp563
a(I0
g130
tp564
a(I1
g123
tp565
a(I2
g213
tp566
a(I3
g130
tp567
a(I0
g130
tp568
a(I1
g123
tp569
a(I2
g170
tp570
a(I3
g130
tp571
a(I0
g170
tp572
a(I1
g119
tp573
a(I2
g130
tp574
a(I3
g119
tp575
a(I0
g170
tp576
a(I1
g130
tp577
a(I2
g130
tp578
a(I3
g123
tp579
a(I0
g119
tp580
a(I1
g119
tp581
a(I2
g130
tp582
a(I3
g130
tp583
a(I0
g170
tp584
a(I1
g130
tp585
a(I2
g170
tp586
a(I3
g123
tp587
a(I0
g213
tp588
a(I1
g123
tp589
a(I2
g130
tp590
a(I3
g119
tp591
a(I0
g130
tp592
a(I1
g130
tp593
a(I2
g119
tp594
a(I3
g123
tp595
a(I0
g130
tp596
a(I1
g119
tp597
a(I2
g170
tp598
a(I3
g123
tp599
a(I0
g170
tp600
a(I1
g123
tp601
a(I2
g213
tp602
a(I3
g123
tp603
a(I0
g213
tp604
a(I1
g123
tp605
a(I2
g130
tp606
a(I3
g119
tp607
a(I0
g119
tp608
a(I1
g123
tp609
a(I2
g119
tp610
a(I3
g130
tp611
a(I0
g119
tp612
a(I1
g130
tp613
a(I2
g170
tp614
a(I3
g119
tp615
a(I0
g119
tp616
a(I1
g123
tp617
a(I2
g213
tp618
a(I3
g123
tp619
a(I0
g119
tp620
a(I1
g119
tp621
a(I2
g130
tp622
a(I3
g119
tp623
a(I0
g119
tp624
a(I1
g119
tp625
a(I2
g119
tp626
a(I3
g119
tp627
a(I0
g213
tp628
a(I1
g130
tp629
a(I2
g213
tp630
a(I3
g123
tp631
a(I0
g213
tp632
a(I1
g119
tp633
a(I2
g119
tp634
a(I3
g123
tp635
a(I0
g170
tp636
a(I1
g119
tp637
a(I2
g213
tp638
a(I3
g123
tp639
a(I0
g119
tp640
a(I1
g130
tp641
a(I2
g213
tp642
a(I3
g123
tp643
a(I0
g130
tp644
a(I1
g123
tp645
a(I2
g130
tp646
a(I3
g130
tp647
a(I0
g170
tp648
a(I1
g119
tp649
a(I2
g130
tp650
a(I3
g130
tp651
a(I0
g130
tp652
a(I1
g123
tp653
a(I2
g130
tp654
a(I3
g123
tp655
a(I0
g170
tp656
a(I1
g119
tp657
a(I2
g130
tp658
a(I3
g130
tp659
a(I0
g170
tp660
a(I1
g123
tp661
a(I2
g170
tp662
a(I3
g130
tp663
a(I0
g119
tp664
a(I1
g130
tp665
a(I2
g119
tp666
a(I3
g119
tp667
a(I0
g119
tp668
a(I1
g123
tp669
a(I2
g213
tp670
a(I3
g130
tp671
a(I0
g170
tp672
a(I1
g130
tp673
a(I2
g119
tp674
a(I3
g130
tp675
a(I0
g213
tp676
a(I1
g123
tp677
a(I2
g119
tp678
a(I3
g119
tp679
a(I0
g119
tp680
a(I1
g130
tp681
a(I2
g119
tp682
a(I3
g119
tp683
a(I0
g213
tp684
a(I1
g119
tp685
a(I2
g213
tp686
a(I3
g119
tp687
a(I0
g119
tp688
a(I1
g123
tp689
a(I2
g119
tp690
a(I3
g119
tp691
a(I0
g119
tp692
a(I1
g119
tp693
a(I2
g119
tp694
a(I3
g130
tp695
a(I0
g213
tp696
a(I1
g123
tp697
a(I2
g119
tp698
a(I3
g123
tp699
a(I0
g213
tp700
a(I1
g123
tp701
a(I2
g119
tp702
a(I3
g123
tp703
a(I0
g130
tp704
a(I1
g119
tp705
a(I2
g213
tp706
a(I3
g130
tp707
a(I0
g213
tp708
a(I1
g130
tp709
a(I2
g213
tp710
a(I3
g123
tp711
a(I0
g213
tp712
a(I1
g130
tp713
a(I2
g130
tp714
a(I3
g123
tp715
a(I0
g213
tp716
a(I1
g123
tp717
a(I2
g130
tp718
a(I3
g130
tp719
a(I0
g213
tp720
a(I1
g123
tp721
a(I2
g130
tp722
a(I3
g123
tp723
a(I0
g213
tp724
a(I1
g130
tp725
a(I2
g130
tp726
a(I3
g130
tp727
a(I0
g213
tp728
a(I1
g119
tp729
a(I2
g130
tp730
a(I3
g130
tp731
a(I0
g119
tp732
a(I1
g123
tp733
a(I2
g130
tp734
a(I3
g123
tp735
a(I0
g213
tp736
a(I1
g130
tp737
a(I2
g130
tp738
a(I3
g119
tp739
a(I0
g213
tp740
a(I1
g130
tp741
a(I2
g130
tp742
a(I3
g123
tp743
a(I0
g119
tp744
a(I1
g119
tp745
a(I2
g130
tp746
a(I3
g119
tp747
a(I0
g213
tp748
asS'length'
p749
I1200
sS'agents'
p750
(lp751
(igame
Agent
p752
(dp753
S'index'
p754
I0
sba(igame
Agent
p755
(dp756
g754
I0
sba(igame
Agent
p757
(dp758
g754
I0
sba(igame
Agent
p759
(dp760
g754
I0
sbasS'redTeamName'
p761
S'Red'
p762
s.